target datalayout = "e-m:e-p270:32:32-p271:32:32-p272:64:64-i64:64-i128:128-f80:128-n8:16:32:64-S128"
target triple = "x86_64-pc-linux-gnu"

%struct.AVCodecContext = type { ptr, i32, i32, ptr, i32, i32, ptr, ptr, ptr, i64, i32, i32, ptr, i32, %struct.AVRational, %struct.AVRational, %struct.AVRational, i32, i32, i32, i32, i32, %struct.AVRational, i32, i32, i32, i32, i32, i32, i32, i32, i32, i32, i32, ptr, ptr, i32, float, float, float, float, float, float, float, float, float, i32, i32, i32, i32, i32, i32, i32, i32, i32, i32, i32, i32, ptr, ptr, ptr, i32, i32, i32, i32, i32, i32, i32, i32, i32, i32, %struct.AVChannelLayout, i32, i32, i32, i32, i32, i32, i32, i32, ptr, i32, i32, i32, float, float, i32, i32, i32, i32, i32, ptr, i64, i64, float, float, i32, i32, ptr, ptr, i32, i32, i32, i32, i32, ptr, ptr, ptr, ptr, i32, i32, [8 x i64], i32, i32, i32, i32, i32, i32, i32, ptr, ptr, i32, i32, i32, i32, i32, i32, i32, i32, i32, i32, ptr, ptr, i32, i32, ptr, ptr, ptr, ptr, i32, i32, i64, i32, i32, i64, ptr, i64, ptr, i32, ptr, i32 }
%struct.AVRational = type { i32, i32 }
%struct.AVChannelLayout = type { i32, i32, %union.anon.0, ptr }
%union.anon.0 = type { i64 }
%struct.AascContext = type { ptr, %struct.GetByteContext, ptr, [256 x i32], i32 }
%struct.GetByteContext = type { ptr, ptr, ptr }

@.str.2 = private unnamed_addr constant [27 x i8] c"Unsupported bit depth: %d\0A\00", align 1

; Function Attrs: cold nounwind optsize uwtable
define internal i32 @aasc_decode_init(ptr noundef %0) #0 {
  %2 = alloca i32, align 4
  %3 = alloca ptr, align 8
  %4 = alloca ptr, align 8
  %5 = alloca ptr, align 8
  %6 = alloca i32, align 4
  %7 = alloca i32, align 4
  store ptr %0, ptr %3, align 8, !tbaa !4
  call void @llvm.lifetime.start.p0(i64 8, ptr %4) #7
  %8 = load ptr, ptr %3, align 8, !tbaa !4
  %9 = getelementptr inbounds nuw %struct.AVCodecContext, ptr %8, i32 0, i32 6
  %10 = load ptr, ptr %9, align 8, !tbaa !9
  store ptr %10, ptr %4, align 8, !tbaa !29
  call void @llvm.lifetime.start.p0(i64 8, ptr %5) #7
  call void @llvm.lifetime.start.p0(i64 4, ptr %6) #7
  %11 = load ptr, ptr %3, align 8, !tbaa !4
  %12 = load ptr, ptr %4, align 8, !tbaa !29
  %13 = getelementptr inbounds nuw %struct.AascContext, ptr %12, i32 0, i32 0
  store ptr %11, ptr %13, align 8, !tbaa !31
  %14 = load ptr, ptr %3, align 8, !tbaa !4
  %15 = getelementptr inbounds nuw %struct.AVCodecContext, ptr %14, i32 0, i32 114
  %16 = load i32, ptr %15, align 8, !tbaa !35
  switch i32 %16, label %64 [
    i32 8, label %17
    i32 16, label %58
    i32 24, label %61
  ]

17:                                               ; preds = %1
  %18 = load ptr, ptr %3, align 8, !tbaa !4
  %19 = getelementptr inbounds nuw %struct.AVCodecContext, ptr %18, i32 0, i32 23
  store i32 11, ptr %19, align 8, !tbaa !36
  %20 = load ptr, ptr %3, align 8, !tbaa !4
  %21 = getelementptr inbounds nuw %struct.AVCodecContext, ptr %20, i32 0, i32 12
  %22 = load ptr, ptr %21, align 8, !tbaa !37
  store ptr %22, ptr %5, align 8, !tbaa !38
  %23 = load ptr, ptr %3, align 8, !tbaa !4
  %24 = getelementptr inbounds nuw %struct.AVCodecContext, ptr %23, i32 0, i32 13
  %25 = load i32, ptr %24, align 8, !tbaa !39
  %26 = icmp sgt i32 %25, 1024
  br i1 %26, label %27, label %28

27:                                               ; preds = %17
  br label %32

28:                                               ; preds = %17
  %29 = load ptr, ptr %3, align 8, !tbaa !4
  %30 = getelementptr inbounds nuw %struct.AVCodecContext, ptr %29, i32 0, i32 13
  %31 = load i32, ptr %30, align 8, !tbaa !39
  br label %32

32:                                               ; preds = %28, %27
  %33 = phi i32 [ 1024, %27 ], [ %31, %28 ]
  %34 = load ptr, ptr %4, align 8, !tbaa !29
  %35 = getelementptr inbounds nuw %struct.AascContext, ptr %34, i32 0, i32 4
  store i32 %33, ptr %35, align 8, !tbaa !40
  store i32 0, ptr %6, align 4, !tbaa !41
  br label %36

36:                                               ; preds = %54, %32
  %37 = load i32, ptr %6, align 4, !tbaa !41
  %38 = load ptr, ptr %4, align 8, !tbaa !29
  %39 = getelementptr inbounds nuw %struct.AascContext, ptr %38, i32 0, i32 4
  %40 = load i32, ptr %39, align 8, !tbaa !40
  %41 = sdiv i32 %40, 4
  %42 = icmp slt i32 %37, %41
  br i1 %42, label %43, label %57

43:                                               ; preds = %36
  %44 = load ptr, ptr %5, align 8, !tbaa !38
  %45 = load i32, ptr %44, align 1, !tbaa !42
  %46 = or i32 -16777216, %45
  %47 = load ptr, ptr %4, align 8, !tbaa !29
  %48 = getelementptr inbounds nuw %struct.AascContext, ptr %47, i32 0, i32 3
  %49 = load i32, ptr %6, align 4, !tbaa !41
  %50 = sext i32 %49 to i64
  %51 = getelementptr inbounds [256 x i32], ptr %48, i64 0, i64 %50
  store i32 %46, ptr %51, align 4, !tbaa !41
  %52 = load ptr, ptr %5, align 8, !tbaa !38
  %53 = getelementptr inbounds i8, ptr %52, i64 4
  store ptr %53, ptr %5, align 8, !tbaa !38
  br label %54

54:                                               ; preds = %43
  %55 = load i32, ptr %6, align 4, !tbaa !41
  %56 = add nsw i32 %55, 1
  store i32 %56, ptr %6, align 4, !tbaa !41
  br label %36, !llvm.loop !43

57:                                               ; preds = %36
  br label %69

58:                                               ; preds = %1
  %59 = load ptr, ptr %3, align 8, !tbaa !4
  %60 = getelementptr inbounds nuw %struct.AVCodecContext, ptr %59, i32 0, i32 23
  store i32 39, ptr %60, align 8, !tbaa !36
  br label %69

61:                                               ; preds = %1
  %62 = load ptr, ptr %3, align 8, !tbaa !4
  %63 = getelementptr inbounds nuw %struct.AVCodecContext, ptr %62, i32 0, i32 23
  store i32 3, ptr %63, align 8, !tbaa !36
  br label %69

64:                                               ; preds = %1
  %65 = load ptr, ptr %3, align 8, !tbaa !4
  %66 = load ptr, ptr %3, align 8, !tbaa !4
  %67 = getelementptr inbounds nuw %struct.AVCodecContext, ptr %66, i32 0, i32 114
  %68 = load i32, ptr %67, align 8, !tbaa !35
  call void (ptr, i32, ptr, ...) @av_log(ptr noundef %65, i32 noundef 16, ptr noundef @.str.2, i32 noundef %68)
  store i32 -1, ptr %2, align 4
  store i32 1, ptr %7, align 4
  br label %79

69:                                               ; preds = %61, %58, %57
  %70 = call ptr @av_frame_alloc()
  %71 = load ptr, ptr %4, align 8, !tbaa !29
  %72 = getelementptr inbounds nuw %struct.AascContext, ptr %71, i32 0, i32 2
  store ptr %70, ptr %72, align 8, !tbaa !45
  %73 = load ptr, ptr %4, align 8, !tbaa !29
  %74 = getelementptr inbounds nuw %struct.AascContext, ptr %73, i32 0, i32 2
  %75 = load ptr, ptr %74, align 8, !tbaa !45
  %76 = icmp ne ptr %75, null
  br i1 %76, label %78, label %77

77:                                               ; preds = %69
  store i32 -12, ptr %2, align 4
  store i32 1, ptr %7, align 4
  br label %79

78:                                               ; preds = %69
  store i32 0, ptr %2, align 4
  store i32 1, ptr %7, align 4
  br label %79

79:                                               ; preds = %78, %77, %64
  call void @llvm.lifetime.end.p0(i64 4, ptr %6) #7
  call void @llvm.lifetime.end.p0(i64 8, ptr %5) #7
  call void @llvm.lifetime.end.p0(i64 8, ptr %4) #7
  %80 = load i32, ptr %2, align 4
  ret i32 %80
}