; Function Attrs: cold nounwind optsize uwtable
define internal range(i32 -12, 1) i32 @aasc_decode_init(ptr noundef %0) #0 {
  %2 = getelementptr inbounds nuw i8, ptr %0, i64 32
  %3 = load ptr, ptr %2, align 8, !tbaa !4
  store ptr %0, ptr %3, align 8, !tbaa !27
  %4 = getelementptr inbounds nuw i8, ptr %0, i64 648
  %5 = load i32, ptr %4, align 8, !tbaa !32
  switch i32 %5, label %25 [
    i32 8, label %6
    i32 16, label %.loopexit.sink.split
    i32 24, label %24
  ]

6:                                                ; preds = %1
  %7 = getelementptr inbounds nuw i8, ptr %0, i64 136
  store i32 11, ptr %7, align 8, !tbaa !33
  %8 = getelementptr inbounds nuw i8, ptr %0, i64 72
  %9 = load ptr, ptr %8, align 8, !tbaa !34
  %10 = getelementptr inbounds nuw i8, ptr %0, i64 80
  %11 = load i32, ptr %10, align 8, !tbaa !35
  %spec.select = tail call i32 @llvm.smin.i32(i32 %11, i32 1024)
  %12 = getelementptr inbounds nuw i8, ptr %3, i64 1064
  store i32 %spec.select, ptr %12, align 8, !tbaa !36
  %13 = icmp sgt i32 %11, 3
  br i1 %13, label %.lr.ph, label %.loopexit

.lr.ph:                                           ; preds = %6
  %14 = getelementptr inbounds nuw i8, ptr %3, i64 40
  br label %15

15:                                               ; preds = %.lr.ph, %15
  %indvars.iv = phi i64 [ 0, %.lr.ph ], [ %indvars.iv.next, %15 ]
  %.02225 = phi ptr [ %9, %.lr.ph ], [ %19, %15 ]
  %16 = load i32, ptr %.02225, align 1, !tbaa !37
  %17 = or i32 %16, -16777216
  %18 = getelementptr inbounds nuw [256 x i32], ptr %14, i64 0, i64 %indvars.iv
  store i32 %17, ptr %18, align 4, !tbaa !38
  %19 = getelementptr inbounds nuw i8, ptr %.02225, i64 4
  %indvars.iv.next = add nuw nsw i64 %indvars.iv, 1
  %20 = load i32, ptr %12, align 8, !tbaa !36
  %21 = sdiv i32 %20, 4
  %22 = sext i32 %21 to i64
  %23 = icmp slt i64 %indvars.iv.next, %22
  br i1 %23, label %15, label %.loopexit, !llvm.loop !39

24:                                               ; preds = %1
  br label %.loopexit.sink.split

25:                                               ; preds = %1
  tail call void (ptr, i32, ptr, ...) @av_log(ptr noundef nonnull %0, i32 noundef 16, ptr noundef nonnull @.str.2, i32 noundef %5) #5
  br label %29

.loopexit.sink.split:                             ; preds = %1, %24
  %.sink = phi i32 [ 3, %24 ], [ 39, %1 ]
  %26 = getelementptr inbounds nuw i8, ptr %0, i64 136
  store i32 %.sink, ptr %26, align 8, !tbaa !33
  br label %.loopexit

.loopexit:                                        ; preds = %15, %.loopexit.sink.split, %6
  %27 = tail call ptr @av_frame_alloc() #5
  %28 = getelementptr inbounds nuw i8, ptr %3, i64 32
  store ptr %27, ptr %28, align 8, !tbaa !41
  %.not = icmp eq ptr %27, null
  %. = select i1 %.not, i32 -12, i32 0
  br label %29

29:                                               ; preds = %.loopexit, %25
  %.023 = phi i32 [ -1, %25 ], [ %., %.loopexit ]
  ret i32 %.023
}